target datalayout = "e-m:e-p270:32:32-p271:32:32-p272:64:64-i64:64-i128:128-f80:128-n8:16:32:64-S128"
target triple = "x86_64-pc-linux-gnu"

%"struct.open_spiel::algorithms::CFRInfoStateValues" = type { %"class.std::vector.16", %"class.std::vector.21", %"class.std::vector.21", %"class.std::vector.21" }
%"class.std::vector.16" = type { %"struct.std::_Vector_base.17" }
%"struct.std::_Vector_base.17" = type { %"struct.std::_Vector_base<long, std::allocator<long>>::_Vector_impl" }
%"struct.std::_Vector_base<long, std::allocator<long>>::_Vector_impl" = type { %"struct.std::_Vector_base<long, std::allocator<long>>::_Vector_impl_data" }
%"struct.std::_Vector_base<long, std::allocator<long>>::_Vector_impl_data" = type { ptr, ptr, ptr }
%"class.std::vector.21" = type { %"struct.std::_Vector_base.22" }
%"struct.std::_Vector_base.22" = type { %"struct.std::_Vector_base<double, std::allocator<double>>::_Vector_impl" }
%"struct.std::_Vector_base<double, std::allocator<double>>::_Vector_impl" = type { %"struct.std::_Vector_base<double, std::allocator<double>>::_Vector_impl_data" }
%"struct.std::_Vector_base<double, std::allocator<double>>::_Vector_impl_data" = type { ptr, ptr, ptr }

; Function Attrs: mustprogress nounwind uwtable
define linkonce_odr noundef i64 @_ZNKSt6vectorIlSaIlEE4sizeEv(ptr noundef nonnull align 8 dereferenceable(24) %0) #4 comdat align 2 {
  %2 = alloca ptr, align 8
  store ptr %0, ptr %2, align 8
  %3 = load ptr, ptr %2, align 8
  %4 = getelementptr inbounds nuw %"struct.std::_Vector_base.17", ptr %3, i32 0, i32 0
  %5 = getelementptr inbounds nuw %"struct.std::_Vector_base<long, std::allocator<long>>::_Vector_impl_data", ptr %4, i32 0, i32 1
  %6 = load ptr, ptr %5, align 8
  %7 = getelementptr inbounds nuw %"struct.std::_Vector_base.17", ptr %3, i32 0, i32 0
  %8 = getelementptr inbounds nuw %"struct.std::_Vector_base<long, std::allocator<long>>::_Vector_impl_data", ptr %7, i32 0, i32 0
  %9 = load ptr, ptr %8, align 8
  %10 = ptrtoint ptr %6 to i64
  %11 = ptrtoint ptr %9 to i64
  %12 = sub i64 %10, %11
  %13 = sdiv exact i64 %12, 8
  ret i64 %13
}

; Function Attrs: mustprogress nounwind uwtable
define linkonce_odr noundef nonnull align 8 dereferenceable(8) ptr @_ZNSt6vectorIdSaIdEEixEm(ptr noundef nonnull align 8 dereferenceable(24) %0, i64 noundef %1) #4 comdat align 2 {
  %3 = alloca ptr, align 8
  %4 = alloca i64, align 8
  store ptr %0, ptr %3, align 8
  store i64 %1, ptr %4, align 8
  %5 = load ptr, ptr %3, align 8
  %6 = getelementptr inbounds nuw %"struct.std::_Vector_base.22", ptr %5, i32 0, i32 0
  %7 = getelementptr inbounds nuw %"struct.std::_Vector_base<double, std::allocator<double>>::_Vector_impl_data", ptr %6, i32 0, i32 0
  %8 = load ptr, ptr %7, align 8
  %9 = load i64, ptr %4, align 8
  %10 = getelementptr inbounds double, ptr %8, i64 %9
  ret ptr %10
}

; Function Attrs: mustprogress nounwind uwtable
define linkonce_odr noundef i32 @_ZNK10open_spiel10algorithms18CFRInfoStateValues11num_actionsEv(ptr noundef nonnull align 8 dereferenceable(96) %0) #4 comdat align 2 {
  %2 = alloca ptr, align 8
  store ptr %0, ptr %2, align 8
  %3 = load ptr, ptr %2, align 8
  %4 = getelementptr inbounds nuw %"struct.open_spiel::algorithms::CFRInfoStateValues", ptr %3, i32 0, i32 0
  %5 = call noundef i64 @_ZNKSt6vectorIlSaIlEE4sizeEv(ptr noundef nonnull align 8 dereferenceable(24) %4) #3
  %6 = trunc i64 %5 to i32
  ret i32 %6
}

; Function Attrs: mustprogress uwtable
define void @_ZN10open_spiel10algorithms18CFRInfoStateValues19ApplyRegretMatchingEv(ptr noundef nonnull align 8 dereferenceable(96) %0) #5 align 2 {
  %2 = alloca ptr, align 8
  %3 = alloca double, align 8
  %4 = alloca i32, align 4
  %5 = alloca i32, align 4
  store ptr %0, ptr %2, align 8
  %6 = load ptr, ptr %2, align 8
  store double 0.000000e+00, ptr %3, align 8
  store i32 0, ptr %4, align 4
  br label %7

7:                                                ; preds = %27, %1
  %8 = load i32, ptr %4, align 4
  %9 = call noundef i32 @_ZNK10open_spiel10algorithms18CFRInfoStateValues11num_actionsEv(ptr noundef nonnull align 8 dereferenceable(96) %6)
  %10 = icmp slt i32 %8, %9
  br i1 %10, label %11, label %30

11:                                               ; preds = %7
  %12 = getelementptr inbounds nuw %"struct.open_spiel::algorithms::CFRInfoStateValues", ptr %6, i32 0, i32 1
  %13 = load i32, ptr %4, align 4
  %14 = sext i32 %13 to i64
  %15 = call noundef nonnull align 8 dereferenceable(8) ptr @_ZNSt6vectorIdSaIdEEixEm(ptr noundef nonnull align 8 dereferenceable(24) %12, i64 noundef %14) #3
  %16 = load double, ptr %15, align 8
  %17 = fcmp ogt double %16, 0.000000e+00
  br i1 %17, label %18, label %26

18:                                               ; preds = %11
  %19 = getelementptr inbounds nuw %"struct.open_spiel::algorithms::CFRInfoStateValues", ptr %6, i32 0, i32 1
  %20 = load i32, ptr %4, align 4
  %21 = sext i32 %20 to i64
  %22 = call noundef nonnull align 8 dereferenceable(8) ptr @_ZNSt6vectorIdSaIdEEixEm(ptr noundef nonnull align 8 dereferenceable(24) %19, i64 noundef %21) #3
  %23 = load double, ptr %22, align 8
  %24 = load double, ptr %3, align 8
  %25 = fadd double %24, %23
  store double %25, ptr %3, align 8
  br label %26

26:                                               ; preds = %18, %11
  br label %27

27:                                               ; preds = %26
  %28 = load i32, ptr %4, align 4
  %29 = add nsw i32 %28, 1
  store i32 %29, ptr %4, align 4
  br label %7, !llvm.loop !22

30:                                               ; preds = %7
  store i32 0, ptr %5, align 4
  br label %31

31:                                               ; preds = %70, %30
  %32 = load i32, ptr %5, align 4
  %33 = call noundef i32 @_ZNK10open_spiel10algorithms18CFRInfoStateValues11num_actionsEv(ptr noundef nonnull align 8 dereferenceable(96) %6)
  %34 = icmp slt i32 %32, %33
  br i1 %34, label %35, label %73

35:                                               ; preds = %31
  %36 = load double, ptr %3, align 8
  %37 = fcmp ogt double %36, 0.000000e+00
  br i1 %37, label %38, label %60

38:                                               ; preds = %35
  %39 = getelementptr inbounds nuw %"struct.open_spiel::algorithms::CFRInfoStateValues", ptr %6, i32 0, i32 1
  %40 = load i32, ptr %5, align 4
  %41 = sext i32 %40 to i64
  %42 = call noundef nonnull align 8 dereferenceable(8) ptr @_ZNSt6vectorIdSaIdEEixEm(ptr noundef nonnull align 8 dereferenceable(24) %39, i64 noundef %41) #3
  %43 = load double, ptr %42, align 8
  %44 = fcmp ogt double %43, 0.000000e+00
  br i1 %44, label %45, label %53

45:                                               ; preds = %38
  %46 = getelementptr inbounds nuw %"struct.open_spiel::algorithms::CFRInfoStateValues", ptr %6, i32 0, i32 1
  %47 = load i32, ptr %5, align 4
  %48 = sext i32 %47 to i64
  %49 = call noundef nonnull align 8 dereferenceable(8) ptr @_ZNSt6vectorIdSaIdEEixEm(ptr noundef nonnull align 8 dereferenceable(24) %46, i64 noundef %48) #3
  %50 = load double, ptr %49, align 8
  %51 = load double, ptr %3, align 8
  %52 = fdiv double %50, %51
  br label %54

53:                                               ; preds = %38
  br label %54

54:                                               ; preds = %53, %45
  %55 = phi double [ %52, %45 ], [ 0.000000e+00, %53 ]
  %56 = getelementptr inbounds nuw %"struct.open_spiel::algorithms::CFRInfoStateValues", ptr %6, i32 0, i32 3
  %57 = load i32, ptr %5, align 4
  %58 = sext i32 %57 to i64
  %59 = call noundef nonnull align 8 dereferenceable(8) ptr @_ZNSt6vectorIdSaIdEEixEm(ptr noundef nonnull align 8 dereferenceable(24) %56, i64 noundef %58) #3
  store double %55, ptr %59, align 8
  br label %69

60:                                               ; preds = %35
  %61 = getelementptr inbounds nuw %"struct.open_spiel::algorithms::CFRInfoStateValues", ptr %6, i32 0, i32 0
  %62 = call noundef i64 @_ZNKSt6vectorIlSaIlEE4sizeEv(ptr noundef nonnull align 8 dereferenceable(24) %61) #3
  %63 = uitofp i64 %62 to double
  %64 = fdiv double 1.000000e+00, %63
  %65 = getelementptr inbounds nuw %"struct.open_spiel::algorithms::CFRInfoStateValues", ptr %6, i32 0, i32 3
  %66 = load i32, ptr %5, align 4
  %67 = sext i32 %66 to i64
  %68 = call noundef nonnull align 8 dereferenceable(8) ptr @_ZNSt6vectorIdSaIdEEixEm(ptr noundef nonnull align 8 dereferenceable(24) %65, i64 noundef %67) #3
  store double %64, ptr %68, align 8
  br label %69

69:                                               ; preds = %60, %54
  br label %70

70:                                               ; preds = %69
  %71 = load i32, ptr %5, align 4
  %72 = add nsw i32 %71, 1
  store i32 %72, ptr %5, align 4
  br label %31, !llvm.loop !23

73:                                               ; preds = %31
  ret void
}