; Function Attrs: mustprogress nofree norecurse nosync nounwind memory(readwrite, inaccessiblemem: none) uwtable
define void @_ZN10open_spiel10algorithms18CFRInfoStateValues19ApplyRegretMatchingEv(ptr nocapture noundef nonnull readonly align 8 dereferenceable(96) %0) local_unnamed_addr #7 align 2 {
  %2 = getelementptr inbounds nuw i8, ptr %0, i64 8
  %3 = load ptr, ptr %2, align 8
  %4 = load ptr, ptr %0, align 8
  %5 = ptrtoint ptr %3 to i64
  %6 = ptrtoint ptr %4 to i64
  %7 = sub i64 %5, %6
  %8 = lshr exact i64 %7, 3
  %9 = trunc i64 %8 to i32
  %10 = icmp sgt i32 %9, 0
  br i1 %10, label %.lr.ph, label %._crit_edge

.lr.ph:                                           ; preds = %1
  %11 = getelementptr inbounds nuw i8, ptr %0, i64 24
  %12 = load ptr, ptr %11, align 8
  %wide.trip.count = and i64 %8, 2147483647
  br label %31

.lr.ph18:                                         ; preds = %31
  %13 = fcmp ogt double %.1, 0.000000e+00
  %14 = getelementptr inbounds nuw i8, ptr %0, i64 72
  %15 = getelementptr inbounds nuw i8, ptr %0, i64 24
  br i1 %13, label %.lr.ph18.split.us, label %.lr.ph18.split

.lr.ph18.split.us:                                ; preds = %.lr.ph18, %.lr.ph18.split.us
  %indvars.iv24 = phi i64 [ %indvars.iv.next25, %.lr.ph18.split.us ], [ 0, %.lr.ph18 ]
  %16 = load ptr, ptr %15, align 8
  %17 = getelementptr inbounds double, ptr %16, i64 %indvars.iv24
  %18 = load double, ptr %17, align 8
  %19 = fcmp ogt double %18, 0.000000e+00
  %20 = fdiv double %18, %.1
  %21 = select i1 %19, double %20, double 0.000000e+00
  %22 = load ptr, ptr %14, align 8
  %23 = getelementptr inbounds double, ptr %22, i64 %indvars.iv24
  store double %21, ptr %23, align 8
  %indvars.iv.next25 = add nuw nsw i64 %indvars.iv24, 1
  %24 = load ptr, ptr %2, align 8
  %25 = load ptr, ptr %0, align 8
  %26 = ptrtoint ptr %24 to i64
  %27 = ptrtoint ptr %25 to i64
  %28 = sub i64 %26, %27
  %sext27 = shl i64 %28, 29
  %29 = ashr i64 %sext27, 32
  %30 = icmp slt i64 %indvars.iv.next25, %29
  br i1 %30, label %.lr.ph18.split.us, label %._crit_edge, !llvm.loop !45

31:                                               ; preds = %.lr.ph, %31
  %indvars.iv = phi i64 [ 0, %.lr.ph ], [ %indvars.iv.next, %31 ]
  %.01415 = phi double [ 0.000000e+00, %.lr.ph ], [ %.1, %31 ]
  %32 = getelementptr inbounds double, ptr %12, i64 %indvars.iv
  %33 = load double, ptr %32, align 8
  %34 = fcmp ogt double %33, 0.000000e+00
  %35 = fadd double %.01415, %33
  %.1 = select i1 %34, double %35, double %.01415
  %indvars.iv.next = add nuw nsw i64 %indvars.iv, 1
  %exitcond.not = icmp eq i64 %indvars.iv.next, %wide.trip.count
  br i1 %exitcond.not, label %.lr.ph18, label %31, !llvm.loop !46

.lr.ph18.split:                                   ; preds = %.lr.ph18, %.lr.ph18.split
  %indvars.iv21 = phi i64 [ %indvars.iv.next22, %.lr.ph18.split ], [ 0, %.lr.ph18 ]
  %36 = phi i64 [ %46, %.lr.ph18.split ], [ %7, %.lr.ph18 ]
  %37 = ashr exact i64 %36, 3
  %38 = uitofp i64 %37 to double
  %39 = fdiv double 1.000000e+00, %38
  %40 = load ptr, ptr %14, align 8
  %41 = getelementptr inbounds double, ptr %40, i64 %indvars.iv21
  store double %39, ptr %41, align 8
  %indvars.iv.next22 = add nuw nsw i64 %indvars.iv21, 1
  %42 = load ptr, ptr %2, align 8
  %43 = load ptr, ptr %0, align 8
  %44 = ptrtoint ptr %42 to i64
  %45 = ptrtoint ptr %43 to i64
  %46 = sub i64 %44, %45
  %sext = shl i64 %46, 29
  %47 = ashr i64 %sext, 32
  %48 = icmp slt i64 %indvars.iv.next22, %47
  br i1 %48, label %.lr.ph18.split, label %._crit_edge, !llvm.loop !45

._crit_edge:                                      ; preds = %.lr.ph18.split, %.lr.ph18.split.us, %1
  ret void
}